; Function Attrs: inlinehint mustprogress optsize uwtable
define internal noundef ptr @_ZZN8nanobind6detail11func_createILb0ELb1EZNS_16cpp_function_defIZL28nanobind_init_test_eigen_extRNS_7module_EE6BufferN5Eigen3MapINS6_5ArrayIjLin1ELin1ELi0ELin1ELin1EEELi0ENS6_6StrideILi0ELi0EEEEES5_JEJNS_5scopeENS_4nameENS_9is_methodENS_9rv_policyEEEEvMT1_FT0_DpT2_EDpRKT3_EUlPS5_E_SC_JSR_EJLm0EEJSD_SE_SF_SG_EEEP7_objectOSH_PFT2_DpSN_ESt16integer_sequenceImJXspT4_EEEDpRKT5_ENUlPvPSU_PhSG_PNS0_12cleanup_listEE_8__invokeES16_S17_S18_SG_S1A_(ptr noundef readonly captures(none) %0, ptr noundef readonly captures(none) %1, ptr noundef readonly captures(none) %2, i32 noundef %3, ptr noundef %4) #18 align 2 {
  %6 = alloca %"struct.nanobind::detail::tuple.1442", align 8
  %7 = alloca %"class.Eigen::Map.92", align 8
  call void @llvm.lifetime.start.p0(i64 8, ptr nonnull %6) #32
  %8 = load ptr, ptr %1, align 8, !tbaa !107
  %9 = load i8, ptr %2, align 1, !tbaa !74
  %10 = call noundef zeroext i1 @_ZN8nanobind6detail11nb_type_getEPKSt9type_infoP7_objecthPNS0_12cleanup_listEPPv(ptr noundef nonnull @_ZTIZL28nanobind_init_test_eigen_extRN8nanobind7module_EE6Buffer, ptr noundef %8, i8 noundef zeroext %9, ptr noundef %4, ptr noundef nonnull align 8 dereferenceable(8) %6) #33
  br i1 %10, label %11, label %_ZZN8nanobind6detail11func_createILb0ELb1EZNS_16cpp_function_defIZL28nanobind_init_test_eigen_extRNS_7module_EE6BufferN5Eigen3MapINS6_5ArrayIjLin1ELin1ELi0ELin1ELin1EEELi0ENS6_6StrideILi0ELi0EEEEES5_JEJNS_5scopeENS_4nameENS_9is_methodENS_9rv_policyEEEEvMT1_FT0_DpT2_EDpRKT3_EUlPS5_E_SC_JSR_EJLm0EEJSD_SE_SF_SG_EEEP7_objectOSH_PFT2_DpSN_ESt16integer_sequenceImJXspT4_EEEDpRKT5_ENKUlPvPSU_PhSG_PNS0_12cleanup_listEE_clES16_S17_S18_SG_S1A_.exit

11:                                               ; preds = %5
  call void @llvm.lifetime.start.p0(i64 32, ptr nonnull %7) #32
  %.val = load ptr, ptr %6, align 8, !tbaa !955
  %.unpack.i = load i64, ptr %0, align 8, !tbaa !963, !noalias !965
  %.elt2.i = getelementptr inbounds nuw i8, ptr %0, i64 8
  %.unpack3.i = load i64, ptr %.elt2.i, align 8, !tbaa !963, !noalias !965
  %12 = getelementptr inbounds i8, ptr %.val, i64 %.unpack3.i
  %13 = and i64 %.unpack.i, 1
  %.not.i = icmp eq i64 %13, 0
  br i1 %.not.i, label %19, label %14

14:                                               ; preds = %11
  %15 = load ptr, ptr %12, align 8, !tbaa !108, !noalias !965
  %16 = getelementptr i8, ptr %15, i64 %.unpack.i
  %17 = getelementptr i8, ptr %16, i64 -1
  %18 = load ptr, ptr %17, align 8, !noalias !965, !nosanitize !92
  br label %_ZZN8nanobind16cpp_function_defIZL28nanobind_init_test_eigen_extRNS_7module_EE6BufferN5Eigen3MapINS4_5ArrayIjLin1ELin1ELi0ELin1ELin1EEELi0ENS4_6StrideILi0ELi0EEEEES3_JEJNS_5scopeENS_4nameENS_9is_methodENS_9rv_policyEEEEvMT1_FT0_DpT2_EDpRKT3_ENKUlPS3_E_clESP_.exit

19:                                               ; preds = %11
  %20 = inttoptr i64 %.unpack.i to ptr
  br label %_ZZN8nanobind16cpp_function_defIZL28nanobind_init_test_eigen_extRNS_7module_EE6BufferN5Eigen3MapINS4_5ArrayIjLin1ELin1ELi0ELin1ELin1EEELi0ENS4_6StrideILi0ELi0EEEEES3_JEJNS_5scopeENS_4nameENS_9is_methodENS_9rv_policyEEEEvMT1_FT0_DpT2_EDpRKT3_ENKUlPS3_E_clESP_.exit

_ZZN8nanobind16cpp_function_defIZL28nanobind_init_test_eigen_extRNS_7module_EE6BufferN5Eigen3MapINS4_5ArrayIjLin1ELin1ELi0ELin1ELin1EEELi0ENS4_6StrideILi0ELi0EEEEES3_JEJNS_5scopeENS_4nameENS_9is_methodENS_9rv_policyEEEEvMT1_FT0_DpT2_EDpRKT3_ENKUlPS3_E_clESP_.exit: ; preds = %14, %19
  %21 = phi ptr [ %18, %14 ], [ %20, %19 ]
  call void %21(ptr dead_on_unwind nonnull writable sret(%"class.Eigen::Map.92") align 8 %7, ptr noundef nonnull align 4 dereferenceable(120) %12) #31
  %22 = call ptr @_ZN8nanobind6detail11type_casterIN5Eigen3MapINS2_5ArrayIjLin1ELin1ELi0ELin1ELin1EEELi0ENS2_6StrideILi0ELi0EEEEEiE8from_cppERKS8_NS_9rv_policyEPNS0_12cleanup_listE(ptr noundef nonnull align 8 dereferenceable(26) %7, i32 noundef %3, ptr noundef %4) #33
  call void @llvm.lifetime.end.p0(i64 32, ptr nonnull %7) #32
  br label %_ZZN8nanobind6detail11func_createILb0ELb1EZNS_16cpp_function_defIZL28nanobind_init_test_eigen_extRNS_7module_EE6BufferN5Eigen3MapINS6_5ArrayIjLin1ELin1ELi0ELin1ELin1EEELi0ENS6_6StrideILi0ELi0EEEEES5_JEJNS_5scopeENS_4nameENS_9is_methodENS_9rv_policyEEEEvMT1_FT0_DpT2_EDpRKT3_EUlPS5_E_SC_JSR_EJLm0EEJSD_SE_SF_SG_EEEP7_objectOSH_PFT2_DpSN_ESt16integer_sequenceImJXspT4_EEEDpRKT5_ENKUlPvPSU_PhSG_PNS0_12cleanup_listEE_clES16_S17_S18_SG_S1A_.exit

_ZZN8nanobind6detail11func_createILb0ELb1EZNS_16cpp_function_defIZL28nanobind_init_test_eigen_extRNS_7module_EE6BufferN5Eigen3MapINS6_5ArrayIjLin1ELin1ELi0ELin1ELin1EEELi0ENS6_6StrideILi0ELi0EEEEES5_JEJNS_5scopeENS_4nameENS_9is_methodENS_9rv_policyEEEEvMT1_FT0_DpT2_EDpRKT3_EUlPS5_E_SC_JSR_EJLm0EEJSD_SE_SF_SG_EEEP7_objectOSH_PFT2_DpSN_ESt16integer_sequenceImJXspT4_EEEDpRKT5_ENKUlPvPSU_PhSG_PNS0_12cleanup_listEE_clES16_S17_S18_SG_S1A_.exit: ; preds = %5, %_ZZN8nanobind16cpp_function_defIZL28nanobind_init_test_eigen_extRNS_7module_EE6BufferN5Eigen3MapINS4_5ArrayIjLin1ELin1ELi0ELin1ELin1EEELi0ENS4_6StrideILi0ELi0EEEEES3_JEJNS_5scopeENS_4nameENS_9is_methodENS_9rv_policyEEEEvMT1_FT0_DpT2_EDpRKT3_ENKUlPS3_E_clESP_.exit
  %.0.i = phi ptr [ %22, %_ZZN8nanobind16cpp_function_defIZL28nanobind_init_test_eigen_extRNS_7module_EE6BufferN5Eigen3MapINS4_5ArrayIjLin1ELin1ELi0ELin1ELin1EEELi0ENS4_6StrideILi0ELi0EEEEES3_JEJNS_5scopeENS_4nameENS_9is_methodENS_9rv_policyEEEEvMT1_FT0_DpT2_EDpRKT3_ENKUlPS3_E_clESP_.exit ], [ inttoptr (i64 1 to ptr), %5 ]
  call void @llvm.lifetime.end.p0(i64 8, ptr nonnull %6) #32
  ret ptr %.0.i
}